target datalayout = "e-m:e-p270:32:32-p271:32:32-p272:64:64-i64:64-i128:128-f80:128-n8:16:32:64-S128"
target triple = "x86_64-pc-linux-gnu"

; Function Attrs: nounwind uwtable
define i32 @H5G_top_term_package() #0 {
  %1 = alloca i32, align 4
  store i32 0, ptr %1, align 4
  %2 = call i64 @H5I_nmembers(i32 noundef 2)
  %3 = icmp sgt i64 %2, 0
  br i1 %3, label %4, label %8

4:                                                ; preds = %0
  %5 = call i32 @H5I_clear_type(i32 noundef 2, i1 noundef zeroext false, i1 noundef zeroext false)
  %6 = load i32, ptr %1, align 4
  %7 = add nsw i32 %6, 1
  store i32 %7, ptr %1, align 4
  br label %8

8:                                                ; preds = %4, %0
  %9 = load i32, ptr %1, align 4
  ret i32 %9
}