; Function Attrs: nounwind uwtable
define range(i32 0, 2) i32 @H5G_top_term_package() local_unnamed_addr #0 {
  %1 = tail call i64 @H5I_nmembers(i32 noundef 2) #10
  %2 = icmp sgt i64 %1, 0
  br i1 %2, label %3, label %5

3:                                                ; preds = %0
  %4 = tail call i32 @H5I_clear_type(i32 noundef 2, i1 noundef zeroext false, i1 noundef zeroext false) #10
  br label %5

5:                                                ; preds = %3, %0
  %.0 = phi i32 [ 1, %3 ], [ 0, %0 ]
  ret i32 %.0
}